target datalayout = "e-m:e-p270:32:32-p271:32:32-p272:64:64-i64:64-i128:128-f80:128-n8:16:32:64-S128"
target triple = "x86_64-unknown-linux-gnu"

%"class.std::set.0" = type { %"class.std::_Rb_tree.1" }
%"class.std::_Rb_tree.1" = type { %"struct.std::_Rb_tree<QuantLib::Observer *, QuantLib::Observer *, std::_Identity<QuantLib::Observer *>, std::less<QuantLib::Observer *>>::_Rb_tree_impl" }
%"struct.std::_Rb_tree<QuantLib::Observer *, QuantLib::Observer *, std::_Identity<QuantLib::Observer *>, std::less<QuantLib::Observer *>>::_Rb_tree_impl" = type { [8 x i8], %"struct.std::_Rb_tree_header" }
%"struct.std::_Rb_tree_header" = type { %"struct.std::_Rb_tree_node_base", i64 }
%"struct.std::_Rb_tree_node_base" = type { i32, ptr, ptr, ptr }
%"class.std::set" = type { %"class.std::_Rb_tree" }
%"class.std::_Rb_tree" = type { %"struct.std::_Rb_tree<boost::shared_ptr<QuantLib::Observable>, boost::shared_ptr<QuantLib::Observable>, std::_Identity<boost::shared_ptr<QuantLib::Observable>>, std::less<boost::shared_ptr<QuantLib::Observable>>>::_Rb_tree_impl" }
%"struct.std::_Rb_tree<boost::shared_ptr<QuantLib::Observable>, boost::shared_ptr<QuantLib::Observable>, std::_Identity<boost::shared_ptr<QuantLib::Observable>>, std::less<boost::shared_ptr<QuantLib::Observable>>>::_Rb_tree_impl" = type { [8 x i8], %"struct.std::_Rb_tree_header" }
%"class.boost::detail::shared_count" = type { ptr }
%"class.QuantLib::Observable" = type { ptr, %"class.std::set.0" }
%"class.boost::shared_ptr.7" = type { ptr, %"class.boost::detail::shared_count" }
%"class.QuantLib::GeometricBrownianMotionProcess" = type { %"class.QuantLib::StochasticProcess1D", double, double, double }
%"class.QuantLib::StochasticProcess1D" = type { %"class.QuantLib::StochasticProcess", %"class.boost::shared_ptr.7" }
%"class.QuantLib::StochasticProcess" = type { %"class.QuantLib::Observer", %"class.QuantLib::Observable", %"class.boost::shared_ptr.6" }
%"class.QuantLib::Observer" = type { ptr, %"class.std::set" }
%"class.boost::shared_ptr.6" = type { ptr, %"class.boost::detail::shared_count" }
%"class.boost::detail::sp_counted_base" = type { ptr, i32, i32 }
%"class.boost::detail::sp_counted_impl_p" = type { %"class.boost::detail::sp_counted_base", ptr }

@_ZTVN8QuantLib19EulerDiscretizationE = external unnamed_addr constant { [10 x ptr], [7 x ptr] }, align 8

; Function Attrs: mustprogress nounwind uwtable
define linkonce_odr void @_ZN5boost6detail15sp_counted_baseC2Ev(ptr noundef nonnull align 8 dereferenceable(16) %this) unnamed_addr #1 comdat align 2 {
entry:
  %this.addr = alloca ptr, align 8
  store ptr %this, ptr %this.addr, align 8, !tbaa !3
  %this1 = load ptr, ptr %this.addr, align 8
  store ptr getelementptr inbounds inrange(-16, 56) ({ [9 x ptr] }, ptr @_ZTVN5boost6detail15sp_counted_baseE, i32 0, i32 0, i32 2), ptr %this1, align 8, !tbaa !14
  %use_count_ = getelementptr inbounds nuw %"class.boost::detail::sp_counted_base", ptr %this1, i32 0, i32 1
  store i32 1, ptr %use_count_, align 8, !tbaa !87
  %weak_count_ = getelementptr inbounds nuw %"class.boost::detail::sp_counted_base", ptr %this1, i32 0, i32 2
  store i32 1, ptr %weak_count_, align 4, !tbaa !88
  ret void
}

; Function Attrs: inlinehint mustprogress nounwind uwtable
define linkonce_odr void @_ZN5boost14checked_deleteIN8QuantLib19EulerDiscretizationEEEvPT_(ptr noundef %x) #5 comdat {
entry:
  %x.addr = alloca ptr, align 8
  store ptr %x, ptr %x.addr, align 8, !tbaa !3
  %0 = load ptr, ptr %x.addr, align 8, !tbaa !3
  %isnull = icmp eq ptr %0, null
  br i1 %isnull, label %delete.end, label %delete.notnull

delete.notnull:                                   ; preds = %entry
  %vtable = load ptr, ptr %0, align 8, !tbaa !14
  %vfn = getelementptr inbounds ptr, ptr %vtable, i64 1
  %1 = load ptr, ptr %vfn, align 8
  call void %1(ptr noundef nonnull align 8 dereferenceable(16) %0) #10
  br label %delete.end

delete.end:                                       ; preds = %delete.notnull, %entry
  ret void
}

; Function Attrs: mustprogress uwtable
define linkonce_odr void @_ZN5boost6detail17sp_counted_impl_pIN8QuantLib19EulerDiscretizationEEC2EPS3_(ptr noundef nonnull align 8 dereferenceable(24) %this, ptr noundef %px) unnamed_addr #2 comdat align 2 {
entry:
  %this.addr = alloca ptr, align 8
  %px.addr = alloca ptr, align 8
  store ptr %this, ptr %this.addr, align 8, !tbaa !3
  store ptr %px, ptr %px.addr, align 8, !tbaa !3
  %this1 = load ptr, ptr %this.addr, align 8
  call void @_ZN5boost6detail15sp_counted_baseC2Ev(ptr noundef nonnull align 8 dereferenceable(16) %this1)
  store ptr getelementptr inbounds inrange(-16, 56) ({ [9 x ptr] }, ptr @_ZTVN5boost6detail17sp_counted_impl_pIN8QuantLib19EulerDiscretizationEEE, i32 0, i32 0, i32 2), ptr %this1, align 8, !tbaa !14
  %px_ = getelementptr inbounds nuw %"class.boost::detail::sp_counted_impl_p", ptr %this1, i32 0, i32 1
  %0 = load ptr, ptr %px.addr, align 8, !tbaa !3
  store ptr %0, ptr %px_, align 8, !tbaa !84
  ret void
}

; Function Attrs: inlinehint mustprogress nounwind uwtable
define linkonce_odr void @_ZN5boost6detail26sp_enable_shared_from_thisEz(...) #5 comdat {
entry:
  ret void
}

; Function Attrs: mustprogress nounwind uwtable
define linkonce_odr void @_ZN5boost6detail12shared_count4swapERS1_(ptr noundef nonnull align 8 dereferenceable(8) %this, ptr noundef nonnull align 8 dereferenceable(8) %r) #1 comdat align 2 {
entry:
  %this.addr = alloca ptr, align 8
  %r.addr = alloca ptr, align 8
  %tmp = alloca ptr, align 8
  store ptr %this, ptr %this.addr, align 8, !tbaa !3
  store ptr %r, ptr %r.addr, align 8, !tbaa !3
  %this1 = load ptr, ptr %this.addr, align 8
  call void @llvm.lifetime.start.p0(i64 8, ptr %tmp) #10
  %0 = load ptr, ptr %r.addr, align 8, !tbaa !3
  %pi_ = getelementptr inbounds nuw %"class.boost::detail::shared_count", ptr %0, i32 0, i32 0
  %1 = load ptr, ptr %pi_, align 8, !tbaa !70
  store ptr %1, ptr %tmp, align 8, !tbaa !3
  %pi_2 = getelementptr inbounds nuw %"class.boost::detail::shared_count", ptr %this1, i32 0, i32 0
  %2 = load ptr, ptr %pi_2, align 8, !tbaa !70
  %3 = load ptr, ptr %r.addr, align 8, !tbaa !3
  %pi_3 = getelementptr inbounds nuw %"class.boost::detail::shared_count", ptr %3, i32 0, i32 0
  store ptr %2, ptr %pi_3, align 8, !tbaa !70
  %4 = load ptr, ptr %tmp, align 8, !tbaa !3
  %pi_4 = getelementptr inbounds nuw %"class.boost::detail::shared_count", ptr %this1, i32 0, i32 0
  store ptr %4, ptr %pi_4, align 8, !tbaa !70
  call void @llvm.lifetime.end.p0(i64 8, ptr %tmp) #10
  ret void
}

; Function Attrs: mustprogress uwtable
define linkonce_odr void @_ZN5boost6detail12shared_countC2IN8QuantLib19EulerDiscretizationEEEPT_(ptr noundef nonnull align 8 dereferenceable(8) %this, ptr noundef %p) unnamed_addr #2 comdat align 2 personality ptr @__gxx_personality_v0 {
entry:
  %this.addr = alloca ptr, align 8
  %p.addr = alloca ptr, align 8
  %exn.slot = alloca ptr, align 8
  %ehselector.slot = alloca i32, align 4
  store ptr %this, ptr %this.addr, align 8, !tbaa !3
  store ptr %p, ptr %p.addr, align 8, !tbaa !3
  %this1 = load ptr, ptr %this.addr, align 8
  %pi_ = getelementptr inbounds nuw %"class.boost::detail::shared_count", ptr %this1, i32 0, i32 0
  store ptr null, ptr %pi_, align 8, !tbaa !70
  %call = invoke noalias noundef nonnull ptr @_Znwm(i64 noundef 24) #19
          to label %invoke.cont unwind label %lpad

invoke.cont:                                      ; preds = %entry
  %0 = load ptr, ptr %p.addr, align 8, !tbaa !3
  invoke void @_ZN5boost6detail17sp_counted_impl_pIN8QuantLib19EulerDiscretizationEEC2EPS3_(ptr noundef nonnull align 8 dereferenceable(24) %call, ptr noundef %0)
          to label %invoke.cont3 unwind label %lpad2

invoke.cont3:                                     ; preds = %invoke.cont
  %pi_4 = getelementptr inbounds nuw %"class.boost::detail::shared_count", ptr %this1, i32 0, i32 0
  store ptr %call, ptr %pi_4, align 8, !tbaa !70
  br label %try.cont

lpad:                                             ; preds = %entry
  %1 = landingpad { ptr, i32 }
          catch ptr null
  %2 = extractvalue { ptr, i32 } %1, 0
  store ptr %2, ptr %exn.slot, align 8
  %3 = extractvalue { ptr, i32 } %1, 1
  store i32 %3, ptr %ehselector.slot, align 4
  br label %catch

lpad2:                                            ; preds = %invoke.cont
  %4 = landingpad { ptr, i32 }
          catch ptr null
  %5 = extractvalue { ptr, i32 } %4, 0
  store ptr %5, ptr %exn.slot, align 8
  %6 = extractvalue { ptr, i32 } %4, 1
  store i32 %6, ptr %ehselector.slot, align 4
  call void @_ZdlPvm(ptr noundef %call, i64 noundef 24) #20
  br label %catch

catch:                                            ; preds = %lpad2, %lpad
  %exn = load ptr, ptr %exn.slot, align 8
  %7 = call ptr @__cxa_begin_catch(ptr %exn) #10
  %8 = load ptr, ptr %p.addr, align 8, !tbaa !3
  call void @_ZN5boost14checked_deleteIN8QuantLib19EulerDiscretizationEEEvPT_(ptr noundef %8) #10
  invoke void @__cxa_rethrow() #21
          to label %unreachable unwind label %lpad5

lpad5:                                            ; preds = %catch
  %9 = landingpad { ptr, i32 }
          cleanup
  %10 = extractvalue { ptr, i32 } %9, 0
  store ptr %10, ptr %exn.slot, align 8
  %11 = extractvalue { ptr, i32 } %9, 1
  store i32 %11, ptr %ehselector.slot, align 4
  invoke void @__cxa_end_catch()
          to label %invoke.cont6 unwind label %terminate.lpad

invoke.cont6:                                     ; preds = %lpad5
  br label %eh.resume

try.cont:                                         ; preds = %invoke.cont3
  ret void

eh.resume:                                        ; preds = %invoke.cont6
  %exn7 = load ptr, ptr %exn.slot, align 8
  %sel = load i32, ptr %ehselector.slot, align 4
  %lpad.val = insertvalue { ptr, i32 } poison, ptr %exn7, 0
  %lpad.val8 = insertvalue { ptr, i32 } %lpad.val, i32 %sel, 1
  resume { ptr, i32 } %lpad.val8

terminate.lpad:                                   ; preds = %lpad5
  %12 = landingpad { ptr, i32 }
          catch ptr null
  %13 = extractvalue { ptr, i32 } %12, 0
  call void @__clang_call_terminate(ptr %13) #17
  unreachable

unreachable:                                      ; preds = %catch
  unreachable
}

; Function Attrs: inlinehint mustprogress uwtable
define linkonce_odr void @_ZN5boost6detail20sp_pointer_constructIN8QuantLib19StochasticProcess1D14discretizationENS2_19EulerDiscretizationEEEvPNS_10shared_ptrIT_EEPT0_RNS0_12shared_countE(ptr noundef %ppx, ptr noundef %p, ptr noundef nonnull align 8 dereferenceable(8) %pn) #4 comdat {
entry:
  %ppx.addr = alloca ptr, align 8
  %p.addr = alloca ptr, align 8
  %pn.addr = alloca ptr, align 8
  %ref.tmp = alloca %"class.boost::detail::shared_count", align 8
  store ptr %ppx, ptr %ppx.addr, align 8, !tbaa !3
  store ptr %p, ptr %p.addr, align 8, !tbaa !3
  store ptr %pn, ptr %pn.addr, align 8, !tbaa !3
  call void @llvm.lifetime.start.p0(i64 8, ptr %ref.tmp) #10
  %0 = load ptr, ptr %p.addr, align 8, !tbaa !3
  call void @_ZN5boost6detail12shared_countC2IN8QuantLib19EulerDiscretizationEEEPT_(ptr noundef nonnull align 8 dereferenceable(8) %ref.tmp, ptr noundef %0)
  %1 = load ptr, ptr %pn.addr, align 8, !tbaa !3
  call void @_ZN5boost6detail12shared_count4swapERS1_(ptr noundef nonnull align 8 dereferenceable(8) %ref.tmp, ptr noundef nonnull align 8 dereferenceable(8) %1) #10
  call void @_ZN5boost6detail12shared_countD2Ev(ptr noundef nonnull align 8 dereferenceable(8) %ref.tmp) #10
  call void @llvm.lifetime.end.p0(i64 8, ptr %ref.tmp) #10
  %2 = load ptr, ptr %ppx.addr, align 8, !tbaa !3
  %3 = load ptr, ptr %p.addr, align 8, !tbaa !3
  %4 = load ptr, ptr %p.addr, align 8, !tbaa !3
  call void (...) @_ZN5boost6detail26sp_enable_shared_from_thisEz(ptr noundef %2, ptr noundef %3, ptr noundef %4)
  ret void
}

; Function Attrs: mustprogress nounwind uwtable
define linkonce_odr void @_ZN5boost6detail12shared_countC2Ev(ptr noundef nonnull align 8 dereferenceable(8) %this) unnamed_addr #1 comdat align 2 {
entry:
  %this.addr = alloca ptr, align 8
  store ptr %this, ptr %this.addr, align 8, !tbaa !3
  %this1 = load ptr, ptr %this.addr, align 8
  %pi_ = getelementptr inbounds nuw %"class.boost::detail::shared_count", ptr %this1, i32 0, i32 0
  store ptr null, ptr %pi_, align 8, !tbaa !70
  ret void
}

; Function Attrs: inlinehint mustprogress nounwind uwtable
define linkonce_odr void @_ZN8QuantLib19StochasticProcess1D14discretizationC2Ev(ptr noundef nonnull align 8 dereferenceable(8) %this) unnamed_addr #5 comdat align 2 {
entry:
  %this.addr = alloca ptr, align 8
  store ptr %this, ptr %this.addr, align 8, !tbaa !3
  %this1 = load ptr, ptr %this.addr, align 8
  store ptr getelementptr inbounds inrange(-16, 40) ({ [7 x ptr] }, ptr @_ZTVN8QuantLib19StochasticProcess1D14discretizationE, i32 0, i32 0, i32 2), ptr %this1, align 8, !tbaa !14
  ret void
}

; Function Attrs: inlinehint mustprogress nounwind uwtable
define linkonce_odr void @_ZN8QuantLib17StochasticProcess14discretizationC2Ev(ptr noundef nonnull align 8 dereferenceable(8) %this) unnamed_addr #5 comdat align 2 {
entry:
  %this.addr = alloca ptr, align 8
  store ptr %this, ptr %this.addr, align 8, !tbaa !3
  %this1 = load ptr, ptr %this.addr, align 8
  store ptr getelementptr inbounds inrange(-16, 40) ({ [7 x ptr] }, ptr @_ZTVN8QuantLib17StochasticProcess14discretizationE, i32 0, i32 0, i32 2), ptr %this1, align 8, !tbaa !14
  ret void
}

; Function Attrs: mustprogress uwtable
define linkonce_odr void @_ZN5boost10shared_ptrIN8QuantLib19StochasticProcess1D14discretizationEEC2INS1_19EulerDiscretizationEEEPT_(ptr noundef nonnull align 8 dereferenceable(16) %this, ptr noundef %p) unnamed_addr #2 comdat align 2 personality ptr @__gxx_personality_v0 {
entry:
  %this.addr = alloca ptr, align 8
  %p.addr = alloca ptr, align 8
  %exn.slot = alloca ptr, align 8
  %ehselector.slot = alloca i32, align 4
  store ptr %this, ptr %this.addr, align 8, !tbaa !3
  store ptr %p, ptr %p.addr, align 8, !tbaa !3
  %this1 = load ptr, ptr %this.addr, align 8
  %px = getelementptr inbounds nuw %"class.boost::shared_ptr.7", ptr %this1, i32 0, i32 0
  %0 = load ptr, ptr %p.addr, align 8, !tbaa !3
  %1 = icmp eq ptr %0, null
  br i1 %1, label %cast.end, label %cast.notnull

cast.notnull:                                     ; preds = %entry
  %add.ptr = getelementptr inbounds i8, ptr %0, i64 8
  br label %cast.end

cast.end:                                         ; preds = %cast.notnull, %entry
  %cast.result = phi ptr [ %add.ptr, %cast.notnull ], [ null, %entry ]
  store ptr %cast.result, ptr %px, align 8, !tbaa !40
  %pn = getelementptr inbounds nuw %"class.boost::shared_ptr.7", ptr %this1, i32 0, i32 1
  call void @_ZN5boost6detail12shared_countC2Ev(ptr noundef nonnull align 8 dereferenceable(8) %pn) #10
  %2 = load ptr, ptr %p.addr, align 8, !tbaa !3
  %pn2 = getelementptr inbounds nuw %"class.boost::shared_ptr.7", ptr %this1, i32 0, i32 1
  invoke void @_ZN5boost6detail20sp_pointer_constructIN8QuantLib19StochasticProcess1D14discretizationENS2_19EulerDiscretizationEEEvPNS_10shared_ptrIT_EEPT0_RNS0_12shared_countE(ptr noundef %this1, ptr noundef %2, ptr noundef nonnull align 8 dereferenceable(8) %pn2)
          to label %invoke.cont unwind label %lpad

invoke.cont:                                      ; preds = %cast.end
  ret void

lpad:                                             ; preds = %cast.end
  %3 = landingpad { ptr, i32 }
          cleanup
  %4 = extractvalue { ptr, i32 } %3, 0
  store ptr %4, ptr %exn.slot, align 8
  %5 = extractvalue { ptr, i32 } %3, 1
  store i32 %5, ptr %ehselector.slot, align 4
  call void @_ZN5boost6detail12shared_countD2Ev(ptr noundef nonnull align 8 dereferenceable(8) %pn) #10
  br label %eh.resume

eh.resume:                                        ; preds = %lpad
  %exn = load ptr, ptr %exn.slot, align 8
  %sel = load i32, ptr %ehselector.slot, align 4
  %lpad.val = insertvalue { ptr, i32 } poison, ptr %exn, 0
  %lpad.val3 = insertvalue { ptr, i32 } %lpad.val, i32 %sel, 1
  resume { ptr, i32 } %lpad.val3
}

; Function Attrs: inlinehint mustprogress nounwind uwtable
define linkonce_odr void @_ZN8QuantLib19EulerDiscretizationC2Ev(ptr noundef nonnull align 8 dereferenceable(16) %this) unnamed_addr #5 comdat align 2 {
entry:
  %this.addr = alloca ptr, align 8
  store ptr %this, ptr %this.addr, align 8, !tbaa !3
  %this1 = load ptr, ptr %this.addr, align 8
  call void @_ZN8QuantLib17StochasticProcess14discretizationC2Ev(ptr noundef nonnull align 8 dereferenceable(8) %this1) #10
  %0 = getelementptr inbounds i8, ptr %this1, i64 8
  call void @_ZN8QuantLib19StochasticProcess1D14discretizationC2Ev(ptr noundef nonnull align 8 dereferenceable(8) %0) #10
  store ptr getelementptr inbounds inrange(-16, 64) ({ [10 x ptr], [7 x ptr] }, ptr @_ZTVN8QuantLib19EulerDiscretizationE, i32 0, i32 0, i32 2), ptr %this1, align 8, !tbaa !14
  %add.ptr = getelementptr inbounds i8, ptr %this1, i64 8
  store ptr getelementptr inbounds inrange(-16, 40) ({ [10 x ptr], [7 x ptr] }, ptr @_ZTVN8QuantLib19EulerDiscretizationE, i32 0, i32 1, i32 2), ptr %add.ptr, align 8, !tbaa !14
  ret void
}

; Function Attrs: mustprogress uwtable
define void @_ZN8QuantLib30GeometricBrownianMotionProcessC2Eddd(ptr noundef nonnull align 8 dereferenceable(168) %this, double noundef %initialValue, double noundef %mue, double noundef %sigma) unnamed_addr #2 align 2 personality ptr @__gxx_personality_v0 {
entry:
  %this.addr = alloca ptr, align 8
  %initialValue.addr = alloca double, align 8
  %mue.addr = alloca double, align 8
  %sigma.addr = alloca double, align 8
  %agg.tmp = alloca %"class.boost::shared_ptr.7", align 8
  %exn.slot = alloca ptr, align 8
  %ehselector.slot = alloca i32, align 4
  store ptr %this, ptr %this.addr, align 8, !tbaa !3
  store double %initialValue, ptr %initialValue.addr, align 8, !tbaa !12
  store double %mue, ptr %mue.addr, align 8, !tbaa !12
  store double %sigma, ptr %sigma.addr, align 8, !tbaa !12
  %this1 = load ptr, ptr %this.addr, align 8
  %call = call noalias noundef nonnull ptr @_Znwm(i64 noundef 16) #19
  call void @_ZN8QuantLib19EulerDiscretizationC2Ev(ptr noundef nonnull align 8 dereferenceable(16) %call) #10
  call void @_ZN5boost10shared_ptrIN8QuantLib19StochasticProcess1D14discretizationEEC2INS1_19EulerDiscretizationEEEPT_(ptr noundef nonnull align 8 dereferenceable(16) %agg.tmp, ptr noundef %call)
  invoke void @_ZN8QuantLib19StochasticProcess1DC2EN5boost10shared_ptrINS0_14discretizationEEE(ptr noundef nonnull align 8 dereferenceable(144) %this1, ptr noundef %agg.tmp)
          to label %invoke.cont unwind label %lpad

invoke.cont:                                      ; preds = %entry
  call void @_ZN5boost10shared_ptrIN8QuantLib19StochasticProcess1D14discretizationEED2Ev(ptr noundef nonnull align 8 dereferenceable(16) %agg.tmp) #10
  store ptr getelementptr inbounds inrange(-16, 184) ({ [25 x ptr], [4 x ptr] }, ptr @_ZTVN8QuantLib30GeometricBrownianMotionProcessE, i32 0, i32 0, i32 2), ptr %this1, align 8, !tbaa !14
  %add.ptr = getelementptr inbounds i8, ptr %this1, i64 56
  store ptr getelementptr inbounds inrange(-16, 16) ({ [25 x ptr], [4 x ptr] }, ptr @_ZTVN8QuantLib30GeometricBrownianMotionProcessE, i32 0, i32 1, i32 2), ptr %add.ptr, align 8, !tbaa !14
  %initialValue_ = getelementptr inbounds nuw %"class.QuantLib::GeometricBrownianMotionProcess", ptr %this1, i32 0, i32 1
  %0 = load double, ptr %initialValue.addr, align 8, !tbaa !12
  store double %0, ptr %initialValue_, align 8, !tbaa !16
  %mue_ = getelementptr inbounds nuw %"class.QuantLib::GeometricBrownianMotionProcess", ptr %this1, i32 0, i32 2
  %1 = load double, ptr %mue.addr, align 8, !tbaa !12
  store double %1, ptr %mue_, align 8, !tbaa !38
  %sigma_ = getelementptr inbounds nuw %"class.QuantLib::GeometricBrownianMotionProcess", ptr %this1, i32 0, i32 3
  %2 = load double, ptr %sigma.addr, align 8, !tbaa !12
  store double %2, ptr %sigma_, align 8, !tbaa !39
  ret void

lpad:                                             ; preds = %entry
  %3 = landingpad { ptr, i32 }
          cleanup
  %4 = extractvalue { ptr, i32 } %3, 0
  store ptr %4, ptr %exn.slot, align 8
  %5 = extractvalue { ptr, i32 } %3, 1
  store i32 %5, ptr %ehselector.slot, align 4
  call void @_ZN5boost10shared_ptrIN8QuantLib19StochasticProcess1D14discretizationEED2Ev(ptr noundef nonnull align 8 dereferenceable(16) %agg.tmp) #10
  br label %eh.resume

eh.resume:                                        ; preds = %lpad
  %exn = load ptr, ptr %exn.slot, align 8
  %sel = load i32, ptr %ehselector.slot, align 4
  %lpad.val = insertvalue { ptr, i32 } poison, ptr %exn, 0
  %lpad.val2 = insertvalue { ptr, i32 } %lpad.val, i32 %sel, 1
  resume { ptr, i32 } %lpad.val2
}