; Function Attrs: mustprogress uwtable
define void @_ZN8QuantLib30GeometricBrownianMotionProcessC2Eddd(ptr noundef nonnull align 8 dereferenceable(168) %this, double noundef %initialValue, double noundef %mue, double noundef %sigma) unnamed_addr #6 align 2 personality ptr @__gxx_personality_v0 {
entry:
  %agg.tmp = alloca %"class.boost::shared_ptr.7", align 8
  %call = tail call noalias noundef nonnull dereferenceable(16) ptr @_Znwm(i64 noundef 16) #18
  %0 = getelementptr inbounds i8, ptr %call, i64 8
  store ptr getelementptr inbounds inrange(-16, 64) (i8, ptr @_ZTVN8QuantLib19EulerDiscretizationE, i64 16), ptr %call, align 8, !tbaa !28
  store ptr getelementptr inbounds inrange(-16, 40) (i8, ptr @_ZTVN8QuantLib19EulerDiscretizationE, i64 96), ptr %0, align 8, !tbaa !28
  store ptr %0, ptr %agg.tmp, align 8, !tbaa !30
  %pn.i = getelementptr inbounds nuw i8, ptr %agg.tmp, i64 8
  store ptr null, ptr %pn.i, align 8, !tbaa !33
  %call.i.i.i = invoke noalias noundef nonnull dereferenceable(24) ptr @_Znwm(i64 noundef 24) #18
          to label %_ZN5boost10shared_ptrIN8QuantLib19StochasticProcess1D14discretizationEEC2INS1_19EulerDiscretizationEEEPT_.exit unwind label %lpad.i.i.i

lpad.i.i.i:                                       ; preds = %entry
  %1 = landingpad { ptr, i32 }
          catch ptr null
  %exn.slot.0.i.i.i = extractvalue { ptr, i32 } %1, 0
  %2 = tail call ptr @__cxa_begin_catch(ptr %exn.slot.0.i.i.i) #16
  %vtable.i.i.i.i = load ptr, ptr %call, align 8, !tbaa !28
  %vfn.i.i.i.i = getelementptr inbounds i8, ptr %vtable.i.i.i.i, i64 8
  %3 = load ptr, ptr %vfn.i.i.i.i, align 8
  tail call void %3(ptr noundef nonnull align 8 dereferenceable(16) %call) #16
  invoke void @__cxa_rethrow() #19
          to label %unreachable.i.i.i unwind label %lpad5.i.i.i

lpad5.i.i.i:                                      ; preds = %lpad.i.i.i
  %4 = landingpad { ptr, i32 }
          cleanup
  invoke void @__cxa_end_catch()
          to label %lpad.body.i unwind label %terminate.lpad.i.i.i

terminate.lpad.i.i.i:                             ; preds = %lpad5.i.i.i
  %5 = landingpad { ptr, i32 }
          catch ptr null
  %6 = extractvalue { ptr, i32 } %5, 0
  tail call void @__clang_call_terminate(ptr %6) #17
  unreachable

unreachable.i.i.i:                                ; preds = %lpad.i.i.i
  unreachable

common.resume:                                    ; preds = %lpad, %lpad.body.i
  %common.resume.op = phi { ptr, i32 } [ %4, %lpad.body.i ], [ %14, %lpad ]
  resume { ptr, i32 } %common.resume.op

lpad.body.i:                                      ; preds = %lpad5.i.i.i
  call void @_ZN5boost6detail12shared_countD2Ev(ptr noundef nonnull align 8 dereferenceable(8) %pn.i) #16
  br label %common.resume

_ZN5boost10shared_ptrIN8QuantLib19StochasticProcess1D14discretizationEEC2INS1_19EulerDiscretizationEEEPT_.exit: ; preds = %entry
  %use_count_.i.i.i.i.i = getelementptr inbounds nuw i8, ptr %call.i.i.i, i64 8
  store i32 1, ptr %use_count_.i.i.i.i.i, align 8, !tbaa !34
  %weak_count_.i.i.i.i.i = getelementptr inbounds nuw i8, ptr %call.i.i.i, i64 12
  store i32 1, ptr %weak_count_.i.i.i.i.i, align 4, !tbaa !37
  store ptr getelementptr inbounds inrange(-16, 56) (i8, ptr @_ZTVN5boost6detail17sp_counted_impl_pIN8QuantLib19EulerDiscretizationEEE, i64 16), ptr %call.i.i.i, align 8, !tbaa !28
  %px_.i.i.i.i = getelementptr inbounds nuw i8, ptr %call.i.i.i, i64 16
  store ptr %call, ptr %px_.i.i.i.i, align 8, !tbaa !38
  store ptr %call.i.i.i, ptr %pn.i, align 8, !tbaa !33
  invoke void @_ZN8QuantLib19StochasticProcess1DC2EN5boost10shared_ptrINS0_14discretizationEEE(ptr noundef nonnull align 8 dereferenceable(144) %this, ptr noundef nonnull %agg.tmp)
          to label %invoke.cont unwind label %lpad

invoke.cont:                                      ; preds = %_ZN5boost10shared_ptrIN8QuantLib19StochasticProcess1D14discretizationEEC2INS1_19EulerDiscretizationEEEPT_.exit
  %7 = load ptr, ptr %pn.i, align 8, !tbaa !33
  %cmp.not.i.i = icmp eq ptr %7, null
  br i1 %cmp.not.i.i, label %_ZN5boost10shared_ptrIN8QuantLib19StochasticProcess1D14discretizationEED2Ev.exit, label %if.then.i.i

if.then.i.i:                                      ; preds = %invoke.cont
  %use_count_.i.i.i = getelementptr inbounds nuw i8, ptr %7, i64 8
  %8 = atomicrmw sub ptr %use_count_.i.i.i, i32 1 acq_rel, align 4
  %cmp.i.i.i = icmp eq i32 %8, 1
  br i1 %cmp.i.i.i, label %if.then.i.i.i, label %_ZN5boost10shared_ptrIN8QuantLib19StochasticProcess1D14discretizationEED2Ev.exit

if.then.i.i.i:                                    ; preds = %if.then.i.i
  %vtable.i.i.i = load ptr, ptr %7, align 8, !tbaa !28
  %vfn.i.i.i = getelementptr inbounds i8, ptr %vtable.i.i.i, i64 16
  %9 = load ptr, ptr %vfn.i.i.i, align 8
  invoke void %9(ptr noundef nonnull align 8 dereferenceable(16) %7)
          to label %.noexc.i.i unwind label %terminate.lpad.i.i

.noexc.i.i:                                       ; preds = %if.then.i.i.i
  %weak_count_.i.i.i.i = getelementptr inbounds nuw i8, ptr %7, i64 12
  %10 = atomicrmw sub ptr %weak_count_.i.i.i.i, i32 1 acq_rel, align 4
  %cmp.i.i.i.i = icmp eq i32 %10, 1
  br i1 %cmp.i.i.i.i, label %if.then.i.i.i.i, label %_ZN5boost10shared_ptrIN8QuantLib19StochasticProcess1D14discretizationEED2Ev.exit

if.then.i.i.i.i:                                  ; preds = %.noexc.i.i
  %vtable.i.i.i.i2 = load ptr, ptr %7, align 8, !tbaa !28
  %vfn.i.i.i.i3 = getelementptr inbounds i8, ptr %vtable.i.i.i.i2, i64 24
  %11 = load ptr, ptr %vfn.i.i.i.i3, align 8
  invoke void %11(ptr noundef nonnull align 8 dereferenceable(16) %7)
          to label %_ZN5boost10shared_ptrIN8QuantLib19StochasticProcess1D14discretizationEED2Ev.exit unwind label %terminate.lpad.i.i

terminate.lpad.i.i:                               ; preds = %if.then.i.i.i.i, %if.then.i.i.i
  %12 = landingpad { ptr, i32 }
          catch ptr null
  %13 = extractvalue { ptr, i32 } %12, 0
  call void @__clang_call_terminate(ptr %13) #17
  unreachable

_ZN5boost10shared_ptrIN8QuantLib19StochasticProcess1D14discretizationEED2Ev.exit: ; preds = %invoke.cont, %if.then.i.i, %.noexc.i.i, %if.then.i.i.i.i
  store ptr getelementptr inbounds inrange(-16, 184) (i8, ptr @_ZTVN8QuantLib30GeometricBrownianMotionProcessE, i64 16), ptr %this, align 8, !tbaa !28
  %add.ptr = getelementptr inbounds i8, ptr %this, i64 56
  store ptr getelementptr inbounds inrange(-16, 16) (i8, ptr @_ZTVN8QuantLib30GeometricBrownianMotionProcessE, i64 216), ptr %add.ptr, align 8, !tbaa !28
  %initialValue_ = getelementptr inbounds nuw i8, ptr %this, i64 144
  store double %initialValue, ptr %initialValue_, align 8, !tbaa !40
  %mue_ = getelementptr inbounds nuw i8, ptr %this, i64 152
  store double %mue, ptr %mue_, align 8, !tbaa !53
  %sigma_ = getelementptr inbounds nuw i8, ptr %this, i64 160
  store double %sigma, ptr %sigma_, align 8, !tbaa !54
  ret void

lpad:                                             ; preds = %_ZN5boost10shared_ptrIN8QuantLib19StochasticProcess1D14discretizationEEC2INS1_19EulerDiscretizationEEEPT_.exit
  %14 = landingpad { ptr, i32 }
          cleanup
  call void @_ZN5boost10shared_ptrIN8QuantLib19StochasticProcess1D14discretizationEED2Ev(ptr noundef nonnull align 8 dereferenceable(16) %agg.tmp) #16
  br label %common.resume
}